; Function Attrs: mustprogress nounwind uwtable
define void @_ZN7Imf_3_218TiledRgbaInputFileD2Ev(ptr noundef nonnull align 8 dereferenceable(56) %this) unnamed_addr #6 align 2 {
entry:
  store ptr getelementptr inbounds ({ [4 x ptr] }, ptr @_ZTVN7Imf_3_218TiledRgbaInputFileE, i64 0, i32 0, i64 2), ptr %this, align 8
  %_inputFile = getelementptr inbounds i8, ptr %this, i64 8
  %0 = load ptr, ptr %_inputFile, align 8
  %isnull = icmp eq ptr %0, null
  br i1 %isnull, label %delete.end, label %delete.notnull

delete.notnull:                                   ; preds = %entry
  %vtable = load ptr, ptr %0, align 8
  %vfn = getelementptr inbounds i8, ptr %vtable, i64 8
  %1 = load ptr, ptr %vfn, align 8
  tail call void %1(ptr noundef nonnull align 8 dereferenceable(16) %0) #15
  br label %delete.end

delete.end:                                       ; preds = %delete.notnull, %entry
  %_fromYa = getelementptr inbounds i8, ptr %this, i64 16
  %2 = load ptr, ptr %_fromYa, align 8
  %isnull2 = icmp eq ptr %2, null
  br i1 %isnull2, label %delete.end4, label %delete.notnull3

delete.notnull3:                                  ; preds = %delete.end
  %_data.i.i = getelementptr inbounds i8, ptr %2, i64 48
  %3 = load ptr, ptr %_data.i.i, align 8
  %isnull.i.i = icmp eq ptr %3, null
  br i1 %isnull.i.i, label %_ZN7Imf_3_218TiledRgbaInputFile6FromYaD2Ev.exit, label %delete.notnull.i.i

delete.notnull.i.i:                               ; preds = %delete.notnull3
  tail call void @_ZdaPv(ptr noundef nonnull %3) #14
  br label %_ZN7Imf_3_218TiledRgbaInputFile6FromYaD2Ev.exit

_ZN7Imf_3_218TiledRgbaInputFile6FromYaD2Ev.exit:  ; preds = %delete.notnull3, %delete.notnull.i.i
  tail call void @_ZdlPv(ptr noundef nonnull %2) #14
  br label %delete.end4

delete.end4:                                      ; preds = %_ZN7Imf_3_218TiledRgbaInputFile6FromYaD2Ev.exit, %delete.end
  %_channelNamePrefix = getelementptr inbounds i8, ptr %this, i64 24
  tail call void @_ZNSt7__cxx1112basic_stringIcSt11char_traitsIcESaIcEED1Ev(ptr noundef nonnull align 8 dereferenceable(32) %_channelNamePrefix) #15
  ret void
}